target datalayout = "e-m:e-p270:32:32-p271:32:32-p272:64:64-i64:64-i128:128-f80:128-n8:16:32:64-S128"
target triple = "x86_64-pc-linux-gnu"

%struct.diff_queue_struct = type { ptr, i32, i32 }
%struct.diff_filespec = type { %struct.object_id, ptr, ptr, ptr, i64, i32, i32, i16, i16, ptr }
%struct.object_id = type { [32 x i8], i32 }
%struct.diff_filepair = type { ptr, ptr, i16, i8, i8 }
%struct.oid_array = type { ptr, i64, i64, i32 }

@diff_queued_diff = dso_local global %struct.diff_queue_struct zeroinitializer, align 8

; Function Attrs: nounwind uwtable
define dso_local void @diff_add_if_missing(ptr noundef %0, ptr noundef %1, ptr noundef %2) #0 {
  %4 = alloca ptr, align 8
  %5 = alloca ptr, align 8
  %6 = alloca ptr, align 8
  store ptr %0, ptr %4, align 8, !tbaa !87
  store ptr %1, ptr %5, align 8, !tbaa !340
  store ptr %2, ptr %6, align 8, !tbaa !88
  %7 = load ptr, ptr %6, align 8, !tbaa !88
  %8 = icmp ne ptr %7, null
  br i1 %8, label %9, label %33

9:                                                ; preds = %3
  %10 = load ptr, ptr %6, align 8, !tbaa !88
  %11 = getelementptr inbounds nuw %struct.diff_filespec, ptr %10, i32 0, i32 8
  %12 = load i16, ptr %11, align 2
  %13 = and i16 %12, 1
  %14 = zext i16 %13 to i32
  %15 = icmp ne i32 %14, 0
  br i1 %15, label %16, label %33

16:                                               ; preds = %9
  %17 = load ptr, ptr %6, align 8, !tbaa !88
  %18 = getelementptr inbounds nuw %struct.diff_filespec, ptr %17, i32 0, i32 7
  %19 = load i16, ptr %18, align 8, !tbaa !119
  %20 = zext i16 %19 to i32
  %21 = and i32 %20, 61440
  %22 = icmp eq i32 %21, 57344
  br i1 %22, label %33, label %23

23:                                               ; preds = %16
  %24 = load ptr, ptr %4, align 8, !tbaa !87
  %25 = load ptr, ptr %6, align 8, !tbaa !88
  %26 = getelementptr inbounds nuw %struct.diff_filespec, ptr %25, i32 0, i32 0
  %27 = call i32 @oid_object_info_extended(ptr noundef %24, ptr noundef %26, ptr noundef null, i32 noundef 24)
  %28 = icmp ne i32 %27, 0
  br i1 %28, label %29, label %33

29:                                               ; preds = %23
  %30 = load ptr, ptr %5, align 8, !tbaa !340
  %31 = load ptr, ptr %6, align 8, !tbaa !88
  %32 = getelementptr inbounds nuw %struct.diff_filespec, ptr %31, i32 0, i32 0
  call void @oid_array_append(ptr noundef %30, ptr noundef %32)
  br label %33

33:                                               ; preds = %29, %23, %16, %9, %3
  ret void
}

; Function Attrs: nounwind uwtable
define dso_local void @diff_queued_diff_prefetch(ptr noundef %0) #0 {
  %2 = alloca ptr, align 8
  %3 = alloca ptr, align 8
  %4 = alloca i32, align 4
  %5 = alloca ptr, align 8
  %6 = alloca %struct.oid_array, align 8
  %7 = alloca ptr, align 8
  store ptr %0, ptr %2, align 8, !tbaa !18
  call void @llvm.lifetime.start.p0(i64 8, ptr %3) #10
  %8 = load ptr, ptr %2, align 8, !tbaa !18
  store ptr %8, ptr %3, align 8, !tbaa !87
  call void @llvm.lifetime.start.p0(i64 4, ptr %4) #10
  call void @llvm.lifetime.start.p0(i64 8, ptr %5) #10
  store ptr @diff_queued_diff, ptr %5, align 8, !tbaa !268
  call void @llvm.lifetime.start.p0(i64 32, ptr %6) #10
  call void @llvm.memset.p0.i64(ptr align 8 %6, i8 0, i64 32, i1 false)
  store i32 0, ptr %4, align 4, !tbaa !16
  br label %9

9:                                                ; preds = %31, %1
  %10 = load i32, ptr %4, align 4, !tbaa !16
  %11 = load ptr, ptr %5, align 8, !tbaa !268
  %12 = getelementptr inbounds nuw %struct.diff_queue_struct, ptr %11, i32 0, i32 2
  %13 = load i32, ptr %12, align 4, !tbaa !270
  %14 = icmp slt i32 %10, %13
  br i1 %14, label %15, label %34

15:                                               ; preds = %9
  call void @llvm.lifetime.start.p0(i64 8, ptr %7) #10
  %16 = load ptr, ptr %5, align 8, !tbaa !268
  %17 = getelementptr inbounds nuw %struct.diff_queue_struct, ptr %16, i32 0, i32 0
  %18 = load ptr, ptr %17, align 8, !tbaa !274
  %19 = load i32, ptr %4, align 4, !tbaa !16
  %20 = sext i32 %19 to i64
  %21 = getelementptr inbounds ptr, ptr %18, i64 %20
  %22 = load ptr, ptr %21, align 8, !tbaa !180
  store ptr %22, ptr %7, align 8, !tbaa !180
  %23 = load ptr, ptr %3, align 8, !tbaa !87
  %24 = load ptr, ptr %7, align 8, !tbaa !180
  %25 = getelementptr inbounds nuw %struct.diff_filepair, ptr %24, i32 0, i32 0
  %26 = load ptr, ptr %25, align 8, !tbaa !185
  call void @diff_add_if_missing(ptr noundef %23, ptr noundef %6, ptr noundef %26)
  %27 = load ptr, ptr %3, align 8, !tbaa !87
  %28 = load ptr, ptr %7, align 8, !tbaa !180
  %29 = getelementptr inbounds nuw %struct.diff_filepair, ptr %28, i32 0, i32 1
  %30 = load ptr, ptr %29, align 8, !tbaa !187
  call void @diff_add_if_missing(ptr noundef %27, ptr noundef %6, ptr noundef %30)
  call void @llvm.lifetime.end.p0(i64 8, ptr %7) #10
  br label %31

31:                                               ; preds = %15
  %32 = load i32, ptr %4, align 4, !tbaa !16
  %33 = add nsw i32 %32, 1
  store i32 %33, ptr %4, align 4, !tbaa !16
  br label %9, !llvm.loop !342

34:                                               ; preds = %9
  %35 = load ptr, ptr %3, align 8, !tbaa !87
  %36 = getelementptr inbounds nuw %struct.oid_array, ptr %6, i32 0, i32 0
  %37 = load ptr, ptr %36, align 8, !tbaa !343
  %38 = getelementptr inbounds nuw %struct.oid_array, ptr %6, i32 0, i32 1
  %39 = load i64, ptr %38, align 8, !tbaa !345
  %40 = trunc i64 %39 to i32
  call void @promisor_remote_get_direct(ptr noundef %35, ptr noundef %37, i32 noundef %40)
  call void @oid_array_clear(ptr noundef %6)
  call void @llvm.lifetime.end.p0(i64 32, ptr %6) #10
  call void @llvm.lifetime.end.p0(i64 8, ptr %5) #10
  call void @llvm.lifetime.end.p0(i64 4, ptr %4) #10
  call void @llvm.lifetime.end.p0(i64 8, ptr %3) #10
  ret void
}