; Function Attrs: nounwind uwtable
define dso_local void @diff_queued_diff_prefetch(ptr noundef %0) #0 {
  %2 = alloca %struct.oid_array, align 8
  call void @llvm.lifetime.start.p0(i64 32, ptr nonnull %2) #32
  call void @llvm.memset.p0.i64(ptr noundef nonnull align 8 dereferenceable(32) %2, i8 0, i64 32, i1 false)
  %3 = load i32, ptr getelementptr inbounds nuw (i8, ptr @diff_queued_diff, i64 12), align 4, !tbaa !172
  %4 = icmp sgt i32 %3, 0
  br i1 %4, label %.lr.ph, label %._crit_edge

.lr.ph:                                           ; preds = %1, %diff_add_if_missing.exit13
  %indvars.iv = phi i64 [ %indvars.iv.next, %diff_add_if_missing.exit13 ], [ 0, %1 ]
  %5 = load ptr, ptr @diff_queued_diff, align 8, !tbaa !176
  %6 = getelementptr inbounds nuw ptr, ptr %5, i64 %indvars.iv
  %7 = load ptr, ptr %6, align 8, !tbaa !177
  %8 = load ptr, ptr %7, align 8, !tbaa !168
  %.not.i = icmp eq ptr %8, null
  br i1 %.not.i, label %diff_add_if_missing.exit, label %9

9:                                                ; preds = %.lr.ph
  %10 = getelementptr inbounds nuw i8, ptr %8, i64 82
  %11 = load i16, ptr %10, align 2
  %12 = and i16 %11, 1
  %.not7.i = icmp eq i16 %12, 0
  br i1 %.not7.i, label %diff_add_if_missing.exit, label %13

13:                                               ; preds = %9
  %14 = getelementptr inbounds nuw i8, ptr %8, i64 80
  %15 = load i16, ptr %14, align 8, !tbaa !100
  %16 = and i16 %15, -4096
  %17 = icmp eq i16 %16, -8192
  br i1 %17, label %diff_add_if_missing.exit, label %18

18:                                               ; preds = %13
  %19 = call i32 @oid_object_info_extended(ptr noundef %0, ptr noundef nonnull %8, ptr noundef null, i32 noundef 24) #32
  %.not8.i = icmp eq i32 %19, 0
  br i1 %.not8.i, label %diff_add_if_missing.exit, label %20

20:                                               ; preds = %18
  call void @oid_array_append(ptr noundef nonnull %2, ptr noundef nonnull %8) #32
  br label %diff_add_if_missing.exit

diff_add_if_missing.exit:                         ; preds = %.lr.ph, %9, %13, %18, %20
  %21 = getelementptr inbounds nuw i8, ptr %7, i64 8
  %22 = load ptr, ptr %21, align 8, !tbaa !171
  %.not.i10 = icmp eq ptr %22, null
  br i1 %.not.i10, label %diff_add_if_missing.exit13, label %23

23:                                               ; preds = %diff_add_if_missing.exit
  %24 = getelementptr inbounds nuw i8, ptr %22, i64 82
  %25 = load i16, ptr %24, align 2
  %26 = and i16 %25, 1
  %.not7.i11 = icmp eq i16 %26, 0
  br i1 %.not7.i11, label %diff_add_if_missing.exit13, label %27

27:                                               ; preds = %23
  %28 = getelementptr inbounds nuw i8, ptr %22, i64 80
  %29 = load i16, ptr %28, align 8, !tbaa !100
  %30 = and i16 %29, -4096
  %31 = icmp eq i16 %30, -8192
  br i1 %31, label %diff_add_if_missing.exit13, label %32

32:                                               ; preds = %27
  %33 = call i32 @oid_object_info_extended(ptr noundef %0, ptr noundef nonnull %22, ptr noundef null, i32 noundef 24) #32
  %.not8.i12 = icmp eq i32 %33, 0
  br i1 %.not8.i12, label %diff_add_if_missing.exit13, label %34

34:                                               ; preds = %32
  call void @oid_array_append(ptr noundef nonnull %2, ptr noundef nonnull %22) #32
  br label %diff_add_if_missing.exit13

diff_add_if_missing.exit13:                       ; preds = %diff_add_if_missing.exit, %23, %27, %32, %34
  %indvars.iv.next = add nuw nsw i64 %indvars.iv, 1
  %35 = load i32, ptr getelementptr inbounds nuw (i8, ptr @diff_queued_diff, i64 12), align 4, !tbaa !172
  %36 = sext i32 %35 to i64
  %37 = icmp slt i64 %indvars.iv.next, %36
  br i1 %37, label %.lr.ph, label %._crit_edge.loopexit, !llvm.loop !362

._crit_edge.loopexit:                             ; preds = %diff_add_if_missing.exit13
  %.pre = load ptr, ptr %2, align 8, !tbaa !363
  %.phi.trans.insert = getelementptr inbounds nuw i8, ptr %2, i64 8
  %.pre16 = load i64, ptr %.phi.trans.insert, align 8, !tbaa !365
  %38 = trunc i64 %.pre16 to i32
  br label %._crit_edge

._crit_edge:                                      ; preds = %._crit_edge.loopexit, %1
  %39 = phi i32 [ %38, %._crit_edge.loopexit ], [ 0, %1 ]
  %40 = phi ptr [ %.pre, %._crit_edge.loopexit ], [ null, %1 ]
  call void @promisor_remote_get_direct(ptr noundef %0, ptr noundef %40, i32 noundef %39) #32
  call void @oid_array_clear(ptr noundef nonnull %2) #32
  call void @llvm.lifetime.end.p0(i64 32, ptr nonnull %2) #32
  ret void
}